; Function Attrs: mustprogress uwtable
define void @_ZN6google8protobuf8compiler7Version5ClearEv(ptr noundef nonnull align 8 dereferenceable(48) %this) unnamed_addr #3 align 2 {
entry:
  %0 = getelementptr inbounds i8, ptr %this, i64 16
  %1 = load i32, ptr %0, align 8
  %and = and i32 %1, 1
  %tobool.not = icmp eq i32 %and, 0
  br i1 %tobool.not, label %if.end, label %if.then

if.then:                                          ; preds = %entry
  %suffix_ = getelementptr inbounds i8, ptr %this, i64 24
  %2 = load ptr, ptr %suffix_, align 8
  %3 = ptrtoint ptr %2 to i64
  %and.i.i = and i64 %3, -4
  %4 = inttoptr i64 %and.i.i to ptr
  tail call void @_ZNSt7__cxx1112basic_stringIcSt11char_traitsIcESaIcEE5clearEv(ptr noundef nonnull align 8 dereferenceable(32) %4) #18
  br label %if.end

if.end:                                           ; preds = %if.then, %entry
  %and2 = and i32 %1, 14
  %tobool3.not = icmp eq i32 %and2, 0
  br i1 %tobool3.not, label %if.end6, label %if.then4

if.then4:                                         ; preds = %if.end
  %major_ = getelementptr inbounds i8, ptr %this, i64 32
  tail call void @llvm.memset.p0.i64(ptr noundef nonnull align 8 dereferenceable(12) %major_, i8 0, i64 12, i1 false)
  br label %if.end6

if.end6:                                          ; preds = %if.then4, %if.end
  store i32 0, ptr %0, align 8
  %_internal_metadata_ = getelementptr inbounds i8, ptr %this, i64 8
  %5 = load i64, ptr %_internal_metadata_, align 8
  %and.i = and i64 %5, 1
  %tobool.i.not = icmp eq i64 %and.i, 0
  br i1 %tobool.i.not, label %_ZN6google8protobuf8internal16InternalMetadata5ClearINS0_15UnknownFieldSetEEEvv.exit, label %if.then.i

if.then.i:                                        ; preds = %if.end6
  tail call void @_ZN6google8protobuf8internal16InternalMetadata7DoClearINS0_15UnknownFieldSetEEEvv(ptr noundef nonnull align 8 dereferenceable(8) %_internal_metadata_)
  br label %_ZN6google8protobuf8internal16InternalMetadata5ClearINS0_15UnknownFieldSetEEEvv.exit

_ZN6google8protobuf8internal16InternalMetadata5ClearINS0_15UnknownFieldSetEEEvv.exit: ; preds = %if.then.i, %if.end6
  ret void
}